; Function Attrs: mustprogress nounwind uwtable
define internal void @_ZN19cmJSONHelperBuilder6ObjectIN12_GLOBAL__N_111RootPresetsEED2Ev(ptr noundef nonnull align 8 dereferenceable(65) %0) unnamed_addr #4 align 2 personality ptr @__gxx_personality_v0 {
  %2 = getelementptr inbounds i8, ptr %0, i64 48
  %3 = load ptr, ptr %2, align 8
  %.not.i.i = icmp eq ptr %3, null
  br i1 %.not.i.i, label %_ZNSt8functionIFS_IFvPKN4Json5ValueEP11cmJSONStateEEN10JsonErrors11ObjectErrorERKSt6vectorINSt7__cxx1112basic_stringIcSt11char_traitsIcESaIcEEESaISG_EEEED2Ev.exit, label %4

4:                                                ; preds = %1
  %5 = getelementptr inbounds i8, ptr %0, i64 32
  %6 = invoke noundef zeroext i1 %3(ptr noundef nonnull align 8 dereferenceable(16) %5, ptr noundef nonnull align 8 dereferenceable(16) %5, i32 noundef 3)
          to label %_ZNSt8functionIFS_IFvPKN4Json5ValueEP11cmJSONStateEEN10JsonErrors11ObjectErrorERKSt6vectorINSt7__cxx1112basic_stringIcSt11char_traitsIcESaIcEEESaISG_EEEED2Ev.exit unwind label %7

7:                                                ; preds = %4
  %8 = landingpad { ptr, i32 }
          catch ptr null
  %9 = extractvalue { ptr, i32 } %8, 0
  tail call void @__clang_call_terminate(ptr %9) #22
  unreachable

_ZNSt8functionIFS_IFvPKN4Json5ValueEP11cmJSONStateEEN10JsonErrors11ObjectErrorERKSt6vectorINSt7__cxx1112basic_stringIcSt11char_traitsIcESaIcEEESaISG_EEEED2Ev.exit: ; preds = %1, %4
  %10 = load ptr, ptr %0, align 8
  %11 = getelementptr inbounds i8, ptr %0, i64 8
  %12 = load ptr, ptr %11, align 8
  %.not4.i.i.i.i = icmp eq ptr %10, %12
  br i1 %.not4.i.i.i.i, label %_ZSt8_DestroyIPN19cmJSONHelperBuilder6ObjectIN12_GLOBAL__N_111RootPresetsEE6MemberES5_EvT_S7_RSaIT0_E.exit.i, label %.lr.ph.i.i.i.i

.lr.ph.i.i.i.i:                                   ; preds = %_ZNSt8functionIFS_IFvPKN4Json5ValueEP11cmJSONStateEEN10JsonErrors11ObjectErrorERKSt6vectorINSt7__cxx1112basic_stringIcSt11char_traitsIcESaIcEEESaISG_EEEED2Ev.exit, %_ZSt8_DestroyIN19cmJSONHelperBuilder6ObjectIN12_GLOBAL__N_111RootPresetsEE6MemberEEvPT_.exit.i.i.i.i
  %.05.i.i.i.i = phi ptr [ %21, %_ZSt8_DestroyIN19cmJSONHelperBuilder6ObjectIN12_GLOBAL__N_111RootPresetsEE6MemberEEvPT_.exit.i.i.i.i ], [ %10, %_ZNSt8functionIFS_IFvPKN4Json5ValueEP11cmJSONStateEEN10JsonErrors11ObjectErrorERKSt6vectorINSt7__cxx1112basic_stringIcSt11char_traitsIcESaIcEEESaISG_EEEED2Ev.exit ]
  %13 = getelementptr inbounds i8, ptr %.05.i.i.i.i, i64 32
  %14 = load ptr, ptr %13, align 8
  %.not.i.i.i.i.i.i.i.i = icmp eq ptr %14, null
  br i1 %.not.i.i.i.i.i.i.i.i, label %_ZSt8_DestroyIN19cmJSONHelperBuilder6ObjectIN12_GLOBAL__N_111RootPresetsEE6MemberEEvPT_.exit.i.i.i.i, label %15

15:                                               ; preds = %.lr.ph.i.i.i.i
  %16 = getelementptr inbounds i8, ptr %.05.i.i.i.i, i64 16
  %17 = invoke noundef zeroext i1 %14(ptr noundef nonnull align 8 dereferenceable(16) %16, ptr noundef nonnull align 8 dereferenceable(16) %16, i32 noundef 3)
          to label %_ZSt8_DestroyIN19cmJSONHelperBuilder6ObjectIN12_GLOBAL__N_111RootPresetsEE6MemberEEvPT_.exit.i.i.i.i unwind label %18

18:                                               ; preds = %15
  %19 = landingpad { ptr, i32 }
          catch ptr null
  %20 = extractvalue { ptr, i32 } %19, 0
  tail call void @__clang_call_terminate(ptr %20) #22
  unreachable

_ZSt8_DestroyIN19cmJSONHelperBuilder6ObjectIN12_GLOBAL__N_111RootPresetsEE6MemberEEvPT_.exit.i.i.i.i: ; preds = %15, %.lr.ph.i.i.i.i
  %21 = getelementptr inbounds i8, ptr %.05.i.i.i.i, i64 56
  %.not.i.i.i.i = icmp eq ptr %21, %12
  br i1 %.not.i.i.i.i, label %_ZSt8_DestroyIPN19cmJSONHelperBuilder6ObjectIN12_GLOBAL__N_111RootPresetsEE6MemberES5_EvT_S7_RSaIT0_E.exitthread-pre-split.i, label %.lr.ph.i.i.i.i, !llvm.loop !22

_ZSt8_DestroyIPN19cmJSONHelperBuilder6ObjectIN12_GLOBAL__N_111RootPresetsEE6MemberES5_EvT_S7_RSaIT0_E.exitthread-pre-split.i: ; preds = %_ZSt8_DestroyIN19cmJSONHelperBuilder6ObjectIN12_GLOBAL__N_111RootPresetsEE6MemberEEvPT_.exit.i.i.i.i
  %.val.pr.i = load ptr, ptr %0, align 8
  br label %_ZSt8_DestroyIPN19cmJSONHelperBuilder6ObjectIN12_GLOBAL__N_111RootPresetsEE6MemberES5_EvT_S7_RSaIT0_E.exit.i

_ZSt8_DestroyIPN19cmJSONHelperBuilder6ObjectIN12_GLOBAL__N_111RootPresetsEE6MemberES5_EvT_S7_RSaIT0_E.exit.i: ; preds = %_ZSt8_DestroyIPN19cmJSONHelperBuilder6ObjectIN12_GLOBAL__N_111RootPresetsEE6MemberES5_EvT_S7_RSaIT0_E.exitthread-pre-split.i, %_ZNSt8functionIFS_IFvPKN4Json5ValueEP11cmJSONStateEEN10JsonErrors11ObjectErrorERKSt6vectorINSt7__cxx1112basic_stringIcSt11char_traitsIcESaIcEEESaISG_EEEED2Ev.exit
  %.val.i = phi ptr [ %.val.pr.i, %_ZSt8_DestroyIPN19cmJSONHelperBuilder6ObjectIN12_GLOBAL__N_111RootPresetsEE6MemberES5_EvT_S7_RSaIT0_E.exitthread-pre-split.i ], [ %10, %_ZNSt8functionIFS_IFvPKN4Json5ValueEP11cmJSONStateEEN10JsonErrors11ObjectErrorERKSt6vectorINSt7__cxx1112basic_stringIcSt11char_traitsIcESaIcEEESaISG_EEEED2Ev.exit ]
  %.not.i.i.i = icmp eq ptr %.val.i, null
  br i1 %.not.i.i.i, label %_ZNSt6vectorIN19cmJSONHelperBuilder6ObjectIN12_GLOBAL__N_111RootPresetsEE6MemberESaIS5_EED2Ev.exit, label %22

22:                                               ; preds = %_ZSt8_DestroyIPN19cmJSONHelperBuilder6ObjectIN12_GLOBAL__N_111RootPresetsEE6MemberES5_EvT_S7_RSaIT0_E.exit.i
  tail call void @_ZdlPv(ptr noundef nonnull %.val.i) #26
  br label %_ZNSt6vectorIN19cmJSONHelperBuilder6ObjectIN12_GLOBAL__N_111RootPresetsEE6MemberESaIS5_EED2Ev.exit

_ZNSt6vectorIN19cmJSONHelperBuilder6ObjectIN12_GLOBAL__N_111RootPresetsEE6MemberESaIS5_EED2Ev.exit: ; preds = %_ZSt8_DestroyIPN19cmJSONHelperBuilder6ObjectIN12_GLOBAL__N_111RootPresetsEE6MemberES5_EvT_S7_RSaIT0_E.exit.i, %22
  ret void
}